target datalayout = "e-m:e-p270:32:32-p271:32:32-p272:64:64-i64:64-i128:128-f80:128-n8:16:32:64-S128"
target triple = "x86_64-pc-linux-gnu"

%struct.strbuf = type { i64, i64, ptr }
%struct.config_source = type { ptr, %union.anon, i32, ptr, ptr, i32, i32, i32, i64, %struct.strbuf, %struct.strbuf, i8, ptr, ptr, ptr }
%union.anon = type { %struct.config_buf }
%struct.config_buf = type { ptr, i64, i64 }
%struct._IO_FILE = type { i32, ptr, ptr, ptr, ptr, ptr, ptr, ptr, ptr, ptr, ptr, ptr, ptr, ptr, i32, i32, i64, i16, i8, [1 x i8], ptr, i64, ptr, ptr, ptr, ptr, i64, i32, [20 x i8] }

; Function Attrs: inlinehint nounwind uwtable
define available_externally i32 @getc_unlocked(ptr noundef %0) #6 {
  %2 = alloca ptr, align 8
  store ptr %0, ptr %2, align 8, !tbaa !50
  %3 = load ptr, ptr %2, align 8, !tbaa !50
  %4 = getelementptr inbounds nuw %struct._IO_FILE, ptr %3, i32 0, i32 1
  %5 = load ptr, ptr %4, align 8, !tbaa !203
  %6 = load ptr, ptr %2, align 8, !tbaa !50
  %7 = getelementptr inbounds nuw %struct._IO_FILE, ptr %6, i32 0, i32 2
  %8 = load ptr, ptr %7, align 8, !tbaa !209
  %9 = icmp uge ptr %5, %8
  %10 = zext i1 %9 to i32
  %11 = sext i32 %10 to i64
  %12 = call i64 @llvm.expect.i64(i64 %11, i64 0)
  %13 = icmp ne i64 %12, 0
  br i1 %13, label %14, label %17

14:                                               ; preds = %1
  %15 = load ptr, ptr %2, align 8, !tbaa !50
  %16 = call i32 @__uflow(ptr noundef %15)
  br label %24

17:                                               ; preds = %1
  %18 = load ptr, ptr %2, align 8, !tbaa !50
  %19 = getelementptr inbounds nuw %struct._IO_FILE, ptr %18, i32 0, i32 1
  %20 = load ptr, ptr %19, align 8, !tbaa !203
  %21 = getelementptr inbounds nuw i8, ptr %20, i32 1
  store ptr %21, ptr %19, align 8, !tbaa !203
  %22 = load i8, ptr %20, align 1, !tbaa !9
  %23 = zext i8 %22 to i32
  br label %24

24:                                               ; preds = %17, %14
  %25 = phi i32 [ %16, %14 ], [ %23, %17 ]
  ret i32 %25
}

; Function Attrs: nounwind uwtable
define internal i32 @config_file_fgetc(ptr noundef %0) #0 {
  %2 = alloca ptr, align 8
  store ptr %0, ptr %2, align 8, !tbaa !61
  %3 = load ptr, ptr %2, align 8, !tbaa !61
  %4 = getelementptr inbounds nuw %struct.config_source, ptr %3, i32 0, i32 1
  %5 = load ptr, ptr %4, align 8, !tbaa !9
  %6 = call i32 @getc_unlocked(ptr noundef %5)
  ret i32 %6
}