; Function Attrs: nounwind uwtable
define internal i32 @config_file_fgetc(ptr noundef readonly captures(none) %0) #0 {
  %2 = getelementptr inbounds nuw i8, ptr %0, i64 8
  %3 = load ptr, ptr %2, align 8, !tbaa !4
  %4 = getelementptr inbounds nuw i8, ptr %3, i64 8
  %5 = load ptr, ptr %4, align 8, !tbaa !179
  %6 = getelementptr inbounds nuw i8, ptr %3, i64 16
  %7 = load ptr, ptr %6, align 8, !tbaa !185
  %.not.i = icmp ult ptr %5, %7
  br i1 %.not.i, label %10, label %8, !prof !186

8:                                                ; preds = %1
  %9 = tail call i32 @__uflow(ptr noundef nonnull %3) #30
  br label %getc_unlocked.exit

10:                                               ; preds = %1
  %11 = getelementptr inbounds nuw i8, ptr %5, i64 1
  store ptr %11, ptr %4, align 8, !tbaa !179
  %12 = load i8, ptr %5, align 1, !tbaa !4
  %13 = zext i8 %12 to i32
  br label %getc_unlocked.exit

getc_unlocked.exit:                               ; preds = %8, %10
  %14 = phi i32 [ %9, %8 ], [ %13, %10 ]
  ret i32 %14
}